target datalayout = "e-m:e-p270:32:32-p271:32:32-p272:64:64-i64:64-i128:128-f80:128-n8:16:32:64-S128"
target triple = "x86_64-pc-linux-gnu"

%"class.icu_77::UMutex" = type { [40 x i8], %"struct.std::atomic", ptr }
%"struct.std::atomic" = type { %"struct.std::__atomic_base" }
%"struct.std::__atomic_base" = type { ptr }
%struct.UConverterSharedData = type { i32, i32, ptr, ptr, i8, i8, ptr, i32, %struct.UConverterMBCSTable }
%struct.UConverterMBCSTable = type { i8, i8, i8, i32, ptr, ptr, ptr, ptr, ptr, ptr, [64 x i16], ptr, ptr, i32, i8, i8, i8, i16, i32, ptr, ptr, ptr, ptr }

@_ZL13cnvCacheMutex = internal global %"class.icu_77::UMutex" zeroinitializer, align 8

; Function Attrs: mustprogress uwtable
define void @ucnv_incrementRefCount_77(ptr noundef %0) #0 {
  %2 = alloca ptr, align 8
  store ptr %0, ptr %2, align 8, !tbaa !18
  %3 = load ptr, ptr %2, align 8, !tbaa !18
  %4 = icmp ne ptr %3, null
  br i1 %4, label %5, label %15

5:                                                ; preds = %1
  %6 = load ptr, ptr %2, align 8, !tbaa !18
  %7 = getelementptr inbounds nuw %struct.UConverterSharedData, ptr %6, i32 0, i32 5
  %8 = load i8, ptr %7, align 1, !tbaa !39
  %9 = icmp ne i8 %8, 0
  br i1 %9, label %10, label %15

10:                                               ; preds = %5
  call void @umtx_lock_77(ptr noundef @_ZL13cnvCacheMutex)
  %11 = load ptr, ptr %2, align 8, !tbaa !18
  %12 = getelementptr inbounds nuw %struct.UConverterSharedData, ptr %11, i32 0, i32 1
  %13 = load i32, ptr %12, align 4, !tbaa !21
  %14 = add i32 %13, 1
  store i32 %14, ptr %12, align 4, !tbaa !21
  call void @umtx_unlock_77(ptr noundef @_ZL13cnvCacheMutex)
  br label %15

15:                                               ; preds = %10, %5, %1
  ret void
}