; Function Attrs: mustprogress uwtable
define void @ucnv_incrementRefCount_77(ptr noundef %0) local_unnamed_addr #0 {
  %.not = icmp eq ptr %0, null
  br i1 %.not, label %9, label %2

2:                                                ; preds = %1
  %3 = getelementptr inbounds nuw i8, ptr %0, i64 25
  %4 = load i8, ptr %3, align 1, !tbaa !34
  %.not3 = icmp eq i8 %4, 0
  br i1 %.not3, label %9, label %5

5:                                                ; preds = %2
  tail call void @umtx_lock_77(ptr noundef nonnull @_ZL13cnvCacheMutex)
  %6 = getelementptr inbounds nuw i8, ptr %0, i64 4
  %7 = load i32, ptr %6, align 4, !tbaa !22
  %8 = add i32 %7, 1
  store i32 %8, ptr %6, align 4, !tbaa !22
  tail call void @umtx_unlock_77(ptr noundef nonnull @_ZL13cnvCacheMutex)
  br label %9

9:                                                ; preds = %5, %2, %1
  ret void
}